target datalayout = "e-m:e-p270:32:32-p271:32:32-p272:64:64-i64:64-i128:128-f80:128-n8:16:32:64-S128"
target triple = "x86_64-pc-linux-gnu"

%struct.URLContext = type { ptr, ptr, ptr, ptr, i32, i32, i32, i32, %struct.AVIOInterruptCB, i64, ptr, ptr, i32 }
%struct.AVIOInterruptCB = type { ptr, ptr }
%struct.concat_data = type { ptr, i64, i64, i64 }
%struct.concat_nodes = type { ptr, i64 }

; Function Attrs: inlinehint nounwind uwtable
define internal i64 @ffurl_seek(ptr noundef %0, i64 noundef %1, i32 noundef %2) #5 {
  %4 = alloca ptr, align 8
  %5 = alloca i64, align 8
  %6 = alloca i32, align 4
  store ptr %0, ptr %4, align 8, !tbaa !4
  store i64 %1, ptr %5, align 8, !tbaa !13
  store i32 %2, ptr %6, align 4, !tbaa !11
  %7 = load ptr, ptr %4, align 8, !tbaa !4
  %8 = load i64, ptr %5, align 8, !tbaa !13
  %9 = load i32, ptr %6, align 4, !tbaa !11
  %10 = call i64 @ffurl_seek2(ptr noundef %7, i64 noundef %8, i32 noundef %9)
  ret i64 %10
}

; Function Attrs: inlinehint nounwind uwtable
define internal i32 @ffurl_read(ptr noundef %0, ptr noundef %1, i32 noundef %2) #5 {
  %4 = alloca ptr, align 8
  %5 = alloca ptr, align 8
  %6 = alloca i32, align 4
  store ptr %0, ptr %4, align 8, !tbaa !4
  store ptr %1, ptr %5, align 8, !tbaa !9
  store i32 %2, ptr %6, align 4, !tbaa !11
  %7 = load ptr, ptr %4, align 8, !tbaa !4
  %8 = load ptr, ptr %5, align 8, !tbaa !9
  %9 = load i32, ptr %6, align 4, !tbaa !11
  %10 = call i32 @ffurl_read2(ptr noundef %7, ptr noundef %8, i32 noundef %9)
  ret i32 %10
}

; Function Attrs: nounwind uwtable
define internal i32 @concat_read(ptr noundef %0, ptr noundef %1, i32 noundef %2) #1 {
  %4 = alloca i32, align 4
  %5 = alloca ptr, align 8
  %6 = alloca ptr, align 8
  %7 = alloca i32, align 4
  %8 = alloca i32, align 4
  %9 = alloca i32, align 4
  %10 = alloca ptr, align 8
  %11 = alloca ptr, align 8
  %12 = alloca i64, align 8
  %13 = alloca i32, align 4
  store ptr %0, ptr %5, align 8, !tbaa !4
  store ptr %1, ptr %6, align 8, !tbaa !9
  store i32 %2, ptr %7, align 4, !tbaa !11
  call void @llvm.lifetime.start.p0(i64 4, ptr %8) #6
  call void @llvm.lifetime.start.p0(i64 4, ptr %9) #6
  store i32 0, ptr %9, align 4, !tbaa !11
  call void @llvm.lifetime.start.p0(i64 8, ptr %10) #6
  %14 = load ptr, ptr %5, align 8, !tbaa !4
  %15 = getelementptr inbounds nuw %struct.URLContext, ptr %14, i32 0, i32 2
  %16 = load ptr, ptr %15, align 8, !tbaa !15
  store ptr %16, ptr %10, align 8, !tbaa !20
  call void @llvm.lifetime.start.p0(i64 8, ptr %11) #6
  %17 = load ptr, ptr %10, align 8, !tbaa !20
  %18 = getelementptr inbounds nuw %struct.concat_data, ptr %17, i32 0, i32 0
  %19 = load ptr, ptr %18, align 8, !tbaa !27
  store ptr %19, ptr %11, align 8, !tbaa !25
  call void @llvm.lifetime.start.p0(i64 8, ptr %12) #6
  %20 = load ptr, ptr %10, align 8, !tbaa !20
  %21 = getelementptr inbounds nuw %struct.concat_data, ptr %20, i32 0, i32 2
  %22 = load i64, ptr %21, align 8, !tbaa !37
  store i64 %22, ptr %12, align 8, !tbaa !13
  br label %23

23:                                               ; preds = %67, %3
  %24 = load i32, ptr %7, align 4, !tbaa !11
  %25 = icmp sgt i32 %24, 0
  br i1 %25, label %26, label %78

26:                                               ; preds = %23
  %27 = load ptr, ptr %11, align 8, !tbaa !25
  %28 = load i64, ptr %12, align 8, !tbaa !13
  %29 = getelementptr inbounds nuw %struct.concat_nodes, ptr %27, i64 %28
  %30 = getelementptr inbounds nuw %struct.concat_nodes, ptr %29, i32 0, i32 0
  %31 = load ptr, ptr %30, align 8, !tbaa !31
  %32 = load ptr, ptr %6, align 8, !tbaa !9
  %33 = load i32, ptr %7, align 4, !tbaa !11
  %34 = call i32 @ffurl_read(ptr noundef %31, ptr noundef %32, i32 noundef %33)
  store i32 %34, ptr %8, align 4, !tbaa !11
  %35 = load i32, ptr %8, align 4, !tbaa !11
  %36 = icmp eq i32 %35, -541478725
  br i1 %36, label %37, label %55

37:                                               ; preds = %26
  %38 = load i64, ptr %12, align 8, !tbaa !13
  %39 = add i64 %38, 1
  %40 = load ptr, ptr %10, align 8, !tbaa !20
  %41 = getelementptr inbounds nuw %struct.concat_data, ptr %40, i32 0, i32 1
  %42 = load i64, ptr %41, align 8, !tbaa !35
  %43 = icmp eq i64 %39, %42
  br i1 %43, label %53, label %44

44:                                               ; preds = %37
  %45 = load ptr, ptr %11, align 8, !tbaa !25
  %46 = load i64, ptr %12, align 8, !tbaa !13
  %47 = add i64 %46, 1
  store i64 %47, ptr %12, align 8, !tbaa !13
  %48 = getelementptr inbounds nuw %struct.concat_nodes, ptr %45, i64 %47
  %49 = getelementptr inbounds nuw %struct.concat_nodes, ptr %48, i32 0, i32 0
  %50 = load ptr, ptr %49, align 8, !tbaa !31
  %51 = call i64 @ffurl_seek(ptr noundef %50, i64 noundef 0, i32 noundef 0)
  %52 = icmp slt i64 %51, 0
  br i1 %52, label %53, label %54

53:                                               ; preds = %44, %37
  br label %78

54:                                               ; preds = %44
  store i32 0, ptr %8, align 4, !tbaa !11
  br label %55

55:                                               ; preds = %54, %26
  %56 = load i32, ptr %8, align 4, !tbaa !11
  %57 = icmp slt i32 %56, 0
  br i1 %57, label %58, label %67

58:                                               ; preds = %55
  %59 = load i32, ptr %9, align 4, !tbaa !11
  %60 = icmp ne i32 %59, 0
  br i1 %60, label %61, label %63

61:                                               ; preds = %58
  %62 = load i32, ptr %9, align 4, !tbaa !11
  br label %65

63:                                               ; preds = %58
  %64 = load i32, ptr %8, align 4, !tbaa !11
  br label %65

65:                                               ; preds = %63, %61
  %66 = phi i32 [ %62, %61 ], [ %64, %63 ]
  store i32 %66, ptr %4, align 4
  store i32 1, ptr %13, align 4
  br label %90

67:                                               ; preds = %55
  %68 = load i32, ptr %8, align 4, !tbaa !11
  %69 = load i32, ptr %9, align 4, !tbaa !11
  %70 = add nsw i32 %69, %68
  store i32 %70, ptr %9, align 4, !tbaa !11
  %71 = load i32, ptr %8, align 4, !tbaa !11
  %72 = load ptr, ptr %6, align 8, !tbaa !9
  %73 = sext i32 %71 to i64
  %74 = getelementptr inbounds i8, ptr %72, i64 %73
  store ptr %74, ptr %6, align 8, !tbaa !9
  %75 = load i32, ptr %8, align 4, !tbaa !11
  %76 = load i32, ptr %7, align 4, !tbaa !11
  %77 = sub nsw i32 %76, %75
  store i32 %77, ptr %7, align 4, !tbaa !11
  br label %23, !llvm.loop !38

78:                                               ; preds = %53, %23
  %79 = load i64, ptr %12, align 8, !tbaa !13
  %80 = load ptr, ptr %10, align 8, !tbaa !20
  %81 = getelementptr inbounds nuw %struct.concat_data, ptr %80, i32 0, i32 2
  store i64 %79, ptr %81, align 8, !tbaa !37
  %82 = load i32, ptr %9, align 4, !tbaa !11
  %83 = icmp ne i32 %82, 0
  br i1 %83, label %84, label %86

84:                                               ; preds = %78
  %85 = load i32, ptr %9, align 4, !tbaa !11
  br label %88

86:                                               ; preds = %78
  %87 = load i32, ptr %8, align 4, !tbaa !11
  br label %88

88:                                               ; preds = %86, %84
  %89 = phi i32 [ %85, %84 ], [ %87, %86 ]
  store i32 %89, ptr %4, align 4
  store i32 1, ptr %13, align 4
  br label %90

90:                                               ; preds = %88, %65
  call void @llvm.lifetime.end.p0(i64 8, ptr %12) #6
  call void @llvm.lifetime.end.p0(i64 8, ptr %11) #6
  call void @llvm.lifetime.end.p0(i64 8, ptr %10) #6
  call void @llvm.lifetime.end.p0(i64 4, ptr %9) #6
  call void @llvm.lifetime.end.p0(i64 4, ptr %8) #6
  %91 = load i32, ptr %4, align 4
  ret i32 %91
}