; Function Attrs: nounwind uwtable
define internal i32 @concat_read(ptr noundef readonly captures(none) %0, ptr noundef %1, i32 noundef %2) #1 {
  %4 = getelementptr inbounds nuw i8, ptr %0, i64 16
  %5 = load ptr, ptr %4, align 8, !tbaa !9
  %6 = load ptr, ptr %5, align 8, !tbaa !19
  %7 = getelementptr inbounds nuw i8, ptr %5, i64 16
  %8 = icmp sgt i32 %2, 0
  br i1 %8, label %.lr.ph, label %._crit_edge.thread

.lr.ph:                                           ; preds = %3
  %9 = load i64, ptr %7, align 8, !tbaa !32
  %10 = getelementptr inbounds nuw i8, ptr %5, i64 8
  br label %11

11:                                               ; preds = %.lr.ph, %.thread
  %.047 = phi i64 [ %9, %.lr.ph ], [ %.242, %.thread ]
  %.02946 = phi ptr [ %1, %.lr.ph ], [ %31, %.thread ]
  %.03045 = phi i32 [ 0, %.lr.ph ], [ %29, %.thread ]
  %.03444 = phi i32 [ %2, %.lr.ph ], [ %32, %.thread ]
  %12 = getelementptr inbounds nuw %struct.concat_nodes, ptr %6, i64 %.047
  %13 = load ptr, ptr %12, align 8, !tbaa !26
  %14 = tail call i32 @ffurl_read2(ptr noundef %13, ptr noundef %.02946, i32 noundef range(i32 1, -2147483648) %.03444) #5
  %15 = icmp eq i32 %14, -541478725
  br i1 %15, label %16, label %25

16:                                               ; preds = %11
  %17 = add i64 %.047, 1
  %18 = load i64, ptr %10, align 8, !tbaa !30
  %19 = icmp eq i64 %17, %18
  br i1 %19, label %._crit_edge, label %20

20:                                               ; preds = %16
  %21 = getelementptr inbounds nuw %struct.concat_nodes, ptr %6, i64 %17
  %22 = load ptr, ptr %21, align 8, !tbaa !26
  %23 = tail call i64 @ffurl_seek2(ptr noundef %22, i64 noundef 0, i32 noundef 0) #5
  %24 = icmp slt i64 %23, 0
  br i1 %24, label %._crit_edge, label %.thread

25:                                               ; preds = %11
  %26 = icmp slt i32 %14, 0
  br i1 %26, label %27, label %.thread

27:                                               ; preds = %25
  %.not = icmp eq i32 %.03045, 0
  %28 = select i1 %.not, i32 %14, i32 %.03045
  br label %._crit_edge.thread

.thread:                                          ; preds = %20, %25
  %.242 = phi i64 [ %.047, %25 ], [ %17, %20 ]
  %.23341 = phi i32 [ %14, %25 ], [ 0, %20 ]
  %29 = add nuw nsw i32 %.23341, %.03045
  %30 = zext nneg i32 %.23341 to i64
  %31 = getelementptr inbounds nuw i8, ptr %.02946, i64 %30
  %32 = sub nsw i32 %.03444, %.23341
  %33 = icmp sgt i32 %32, 0
  br i1 %33, label %11, label %._crit_edge, !llvm.loop !33

._crit_edge:                                      ; preds = %.thread, %20, %16
  %.030.lcssa = phi i32 [ %29, %.thread ], [ %.03045, %20 ], [ %.03045, %16 ]
  %.132 = phi i32 [ %.23341, %.thread ], [ -541478725, %20 ], [ -541478725, %16 ]
  %.1 = phi i64 [ %.242, %.thread ], [ %17, %20 ], [ %.047, %16 ]
  %.030.lcssa.fr = freeze i32 %.030.lcssa
  store i64 %.1, ptr %7, align 8, !tbaa !32
  %.not38 = icmp eq i32 %.030.lcssa.fr, 0
  %spec.select = select i1 %.not38, i32 %.132, i32 %.030.lcssa.fr
  br label %._crit_edge.thread

._crit_edge.thread:                               ; preds = %._crit_edge, %3, %27
  %.028 = phi i32 [ %28, %27 ], [ undef, %3 ], [ %spec.select, %._crit_edge ]
  ret i32 %.028
}